target datalayout = "e-m:e-p270:32:32-p271:32:32-p272:64:64-i64:64-i128:128-f80:128-n8:16:32:64-S128"
target triple = "x86_64-pc-linux-gnu"

%"class.btInverseDynamicsBullet3::MultiBodyTree" = type { i8, i8, i8, ptr, ptr }

@.str = private unnamed_addr constant [17 x i8] c"b3Error[%s,%d]:\0A\00", align 1
@.str.1 = private unnamed_addr constant [137 x i8] c"generated/home/dtcxzyw/WorkSpace/Projects/compilers/llvm-opt-benchmark/bench/bullet3/bullet3/src/BulletInverseDynamics/MultiBodyTree.cpp\00", align 1
@.str.2 = private unnamed_addr constant [33 x i8] c"system has not been initialized\0A\00", align 1
@.str.5 = private unnamed_addr constant [33 x i8] c"error in kinematics calculation\0A\00", align 1

; Function Attrs: mustprogress uwtable
define dso_local noundef i32 @_ZN24btInverseDynamicsBullet313MultiBodyTree27calculatePositionKinematicsERKNS_4vecxE(ptr noundef nonnull align 8 dereferenceable(24) %0, ptr noundef nonnull align 8 dereferenceable(32) %1) #2 align 2 {
  %3 = alloca i32, align 4
  %4 = alloca ptr, align 8
  %5 = alloca ptr, align 8
  store ptr %0, ptr %4, align 8, !tbaa !12
  store ptr %1, ptr %5, align 8, !tbaa !59
  %6 = load ptr, ptr %4, align 8
  %7 = getelementptr inbounds nuw %"class.btInverseDynamicsBullet3::MultiBodyTree", ptr %6, i32 0, i32 0
  %8 = load i8, ptr %7, align 8, !tbaa !14, !range !29, !noundef !30
  %9 = trunc i8 %8 to i1
  %10 = zext i1 %9 to i32
  %11 = icmp eq i32 0, %10
  br i1 %11, label %12, label %15

12:                                               ; preds = %2
  br label %13

13:                                               ; preds = %12
  call void (ptr, ...) @b3OutputErrorMessageVarArgsInternal(ptr noundef @.str, ptr noundef @.str.1, i32 noundef 164)
  call void (ptr, ...) @b3OutputErrorMessageVarArgsInternal(ptr noundef @.str.2)
  br label %14

14:                                               ; preds = %13
  store i32 -1, ptr %3, align 4
  br label %27

15:                                               ; preds = %2
  %16 = getelementptr inbounds nuw %"class.btInverseDynamicsBullet3::MultiBodyTree", ptr %6, i32 0, i32 3
  %17 = load ptr, ptr %16, align 8, !tbaa !21
  %18 = load ptr, ptr %5, align 8, !tbaa !59
  %19 = load ptr, ptr %5, align 8, !tbaa !59
  %20 = load ptr, ptr %5, align 8, !tbaa !59
  %21 = call noundef i32 @_ZN24btInverseDynamicsBullet313MultiBodyTree13MultiBodyImpl19calculateKinematicsERKNS_4vecxES4_S4_NS1_13KinUpdateTypeE(ptr noundef nonnull align 8 dereferenceable(400) %17, ptr noundef nonnull align 8 dereferenceable(32) %18, ptr noundef nonnull align 8 dereferenceable(32) %19, ptr noundef nonnull align 8 dereferenceable(32) %20, i32 noundef 1)
  %22 = icmp eq i32 -1, %21
  br i1 %22, label %23, label %26

23:                                               ; preds = %15
  br label %24

24:                                               ; preds = %23
  call void (ptr, ...) @b3OutputErrorMessageVarArgsInternal(ptr noundef @.str, ptr noundef @.str.1, i32 noundef 170)
  call void (ptr, ...) @b3OutputErrorMessageVarArgsInternal(ptr noundef @.str.5)
  br label %25

25:                                               ; preds = %24
  store i32 -1, ptr %3, align 4
  br label %27

26:                                               ; preds = %15
  store i32 0, ptr %3, align 4
  br label %27

27:                                               ; preds = %26, %25, %14
  %28 = load i32, ptr %3, align 4
  ret i32 %28
}