; Function Attrs: mustprogress uwtable
define dso_local noundef range(i32 -1, 1) i32 @_ZN24btInverseDynamicsBullet313MultiBodyTree27calculatePositionKinematicsERKNS_4vecxE(ptr noundef nonnull readonly align 8 captures(none) dereferenceable(24) %0, ptr noundef nonnull align 8 dereferenceable(32) %1) local_unnamed_addr #0 align 2 {
  %3 = load i8, ptr %0, align 8, !tbaa !4, !range !21, !noundef !22
  %4 = icmp eq i8 %3, 0
  br i1 %4, label %.sink.split, label %5

5:                                                ; preds = %2
  %6 = getelementptr inbounds nuw i8, ptr %0, i64 8
  %7 = load ptr, ptr %6, align 8, !tbaa !15
  %8 = tail call noundef i32 @_ZN24btInverseDynamicsBullet313MultiBodyTree13MultiBodyImpl19calculateKinematicsERKNS_4vecxES4_S4_NS1_13KinUpdateTypeE(ptr noundef nonnull align 8 dereferenceable(400) %7, ptr noundef nonnull align 8 dereferenceable(32) %1, ptr noundef nonnull align 8 dereferenceable(32) %1, ptr noundef nonnull align 8 dereferenceable(32) %1, i32 noundef 1)
  %9 = icmp eq i32 %8, -1
  br i1 %9, label %.sink.split, label %10

.sink.split:                                      ; preds = %5, %2
  %.sink = phi i32 [ 164, %2 ], [ 170, %5 ]
  %.str.5.sink = phi ptr [ @.str.2, %2 ], [ @.str.5, %5 ]
  tail call void (ptr, ...) @b3OutputErrorMessageVarArgsInternal(ptr noundef nonnull @.str, ptr noundef nonnull @.str.1, i32 noundef %.sink)
  tail call void (ptr, ...) @b3OutputErrorMessageVarArgsInternal(ptr noundef nonnull %.str.5.sink)
  br label %10

10:                                               ; preds = %.sink.split, %5
  %.0 = phi i32 [ 0, %5 ], [ -1, %.sink.split ]
  ret i32 %.0
}